target datalayout = "e-m:e-p270:32:32-p271:32:32-p272:64:64-i64:64-i128:128-f80:128-n8:16:32:64-S128"
target triple = "x86_64-pc-linux-gnu"

%struct._address = type { i32, i32, ptr, ptr }
%struct._packet_info = type { ptr, ptr, i32, i32, %struct.nstime_t, %struct.nstime_t, %struct.nstime_t, i8, ptr, ptr, ptr, ptr, %struct._address, %struct._address, %struct._address, %struct._address, %struct._address, %struct._address, i32, ptr, i8, [3 x i8], %struct.anon.1, i32, i32, i32, i32, ptr, i8, ptr, ptr, i16, i16, i32, i32, i16, i32, i32, ptr, ptr, ptr, i8, i8, i16, i16, i16, i32, i16, i16, ptr, ptr, ptr, ptr, ptr, i32, i32 }
%struct.nstime_t = type { i64, i32 }
%struct.anon.1 = type { i8, [3 x i8] }
%struct._export_object_entry_t = type { i32, ptr, ptr, ptr, i64, ptr }
%struct._http_eo_t = type { ptr, ptr, ptr, ptr }
%struct._export_object_list_t = type { ptr, ptr, ptr }

; Function Attrs: null_pointer_is_valid sspstrong uwtable
define internal i32 @http_eo_packet(ptr noundef %0, ptr noundef %1, ptr noundef %2, ptr noundef %3, i32 noundef %4) #0 {
  %6 = alloca i32, align 4
  %7 = alloca ptr, align 8
  %8 = alloca ptr, align 8
  %9 = alloca ptr, align 8
  %10 = alloca ptr, align 8
  %11 = alloca i32, align 4
  %12 = alloca ptr, align 8
  %13 = alloca ptr, align 8
  %14 = alloca ptr, align 8
  %15 = alloca i64, align 8
  %16 = alloca i64, align 8
  %17 = alloca ptr, align 8
  %18 = alloca ptr, align 8
  %19 = alloca i32, align 4
  store ptr %0, ptr %7, align 8
  store ptr %1, ptr %8, align 8
  store ptr %2, ptr %9, align 8
  store ptr %3, ptr %10, align 8
  store i32 %4, ptr %11, align 4
  call void @llvm.lifetime.start.p0(i64 8, ptr %12) #19
  %20 = load ptr, ptr %7, align 8
  store ptr %20, ptr %12, align 8
  call void @llvm.lifetime.start.p0(i64 8, ptr %13) #19
  %21 = load ptr, ptr %10, align 8
  store ptr %21, ptr %13, align 8
  call void @llvm.lifetime.start.p0(i64 8, ptr %14) #19
  %22 = load ptr, ptr %13, align 8
  %23 = icmp ne ptr %22, null
  br i1 %23, label %24, label %108

24:                                               ; preds = %5
  call void @llvm.lifetime.start.p0(i64 8, ptr %15) #19
  store i64 1, ptr %15, align 8
  call void @llvm.lifetime.start.p0(i64 8, ptr %16) #19
  store i64 48, ptr %16, align 8
  call void @llvm.lifetime.start.p0(i64 8, ptr %17) #19
  %25 = load i64, ptr %16, align 8
  %26 = icmp eq i64 %25, 1
  br i1 %26, label %27, label %30

27:                                               ; preds = %24
  %28 = load i64, ptr %15, align 8
  %29 = call noalias ptr @g_malloc(i64 noundef %28) #21
  store ptr %29, ptr %17, align 8
  br label %51

30:                                               ; preds = %24
  %31 = load i64, ptr %15, align 8
  %32 = call i1 @llvm.is.constant.i64(i64 %31)
  br i1 %32, label %33, label %46

33:                                               ; preds = %30
  %34 = load i64, ptr %16, align 8
  %35 = icmp eq i64 %34, 0
  br i1 %35, label %41, label %36

36:                                               ; preds = %33
  %37 = load i64, ptr %15, align 8
  %38 = load i64, ptr %16, align 8
  %39 = udiv i64 -1, %38
  %40 = icmp ule i64 %37, %39
  br i1 %40, label %41, label %46

41:                                               ; preds = %36, %33
  %42 = load i64, ptr %15, align 8
  %43 = load i64, ptr %16, align 8
  %44 = mul i64 %42, %43
  %45 = call noalias ptr @g_malloc(i64 noundef %44) #21
  store ptr %45, ptr %17, align 8
  br label %50

46:                                               ; preds = %36, %30
  %47 = load i64, ptr %15, align 8
  %48 = load i64, ptr %16, align 8
  %49 = call noalias ptr @g_malloc_n(i64 noundef %47, i64 noundef %48) #22
  store ptr %49, ptr %17, align 8
  br label %50

50:                                               ; preds = %46, %41
  br label %51

51:                                               ; preds = %50, %27
  %52 = load ptr, ptr %17, align 8
  store ptr %52, ptr %18, align 8
  call void @llvm.lifetime.end.p0(i64 8, ptr %17) #19
  call void @llvm.lifetime.end.p0(i64 8, ptr %16) #19
  call void @llvm.lifetime.end.p0(i64 8, ptr %15) #19
  %53 = load ptr, ptr %18, align 8
  store ptr %53, ptr %14, align 8
  %54 = load ptr, ptr %8, align 8
  %55 = getelementptr inbounds nuw %struct._packet_info, ptr %54, i32 0, i32 3
  %56 = load i32, ptr %55, align 4
  %57 = load ptr, ptr %14, align 8
  %58 = getelementptr inbounds nuw %struct._export_object_entry_t, ptr %57, i32 0, i32 0
  store i32 %56, ptr %58, align 8
  %59 = load ptr, ptr %13, align 8
  %60 = getelementptr inbounds nuw %struct._http_eo_t, ptr %59, i32 0, i32 0
  %61 = load ptr, ptr %60, align 8
  %62 = call noalias ptr @g_strdup(ptr noundef %61)
  %63 = load ptr, ptr %14, align 8
  %64 = getelementptr inbounds nuw %struct._export_object_entry_t, ptr %63, i32 0, i32 1
  store ptr %62, ptr %64, align 8
  %65 = load ptr, ptr %13, align 8
  %66 = getelementptr inbounds nuw %struct._http_eo_t, ptr %65, i32 0, i32 2
  %67 = load ptr, ptr %66, align 8
  %68 = call noalias ptr @g_strdup(ptr noundef %67)
  %69 = load ptr, ptr %14, align 8
  %70 = getelementptr inbounds nuw %struct._export_object_entry_t, ptr %69, i32 0, i32 2
  store ptr %68, ptr %70, align 8
  %71 = load ptr, ptr %13, align 8
  %72 = getelementptr inbounds nuw %struct._http_eo_t, ptr %71, i32 0, i32 1
  %73 = load ptr, ptr %72, align 8
  %74 = icmp ne ptr %73, null
  br i1 %74, label %75, label %80

75:                                               ; preds = %51
  %76 = load ptr, ptr %13, align 8
  %77 = getelementptr inbounds nuw %struct._http_eo_t, ptr %76, i32 0, i32 1
  %78 = load ptr, ptr %77, align 8
  %79 = call noalias ptr @g_path_get_basename(ptr noundef %78)
  br label %81

80:                                               ; preds = %51
  br label %81

81:                                               ; preds = %80, %75
  %82 = phi ptr [ %79, %75 ], [ null, %80 ]
  %83 = load ptr, ptr %14, align 8
  %84 = getelementptr inbounds nuw %struct._export_object_entry_t, ptr %83, i32 0, i32 3
  store ptr %82, ptr %84, align 8
  %85 = load ptr, ptr %13, align 8
  %86 = getelementptr inbounds nuw %struct._http_eo_t, ptr %85, i32 0, i32 3
  %87 = load ptr, ptr %86, align 8
  %88 = call i32 @tvb_captured_length(ptr noundef %87)
  %89 = zext i32 %88 to i64
  %90 = load ptr, ptr %14, align 8
  %91 = getelementptr inbounds nuw %struct._export_object_entry_t, ptr %90, i32 0, i32 4
  store i64 %89, ptr %91, align 8
  %92 = load ptr, ptr %13, align 8
  %93 = getelementptr inbounds nuw %struct._http_eo_t, ptr %92, i32 0, i32 3
  %94 = load ptr, ptr %93, align 8
  %95 = load ptr, ptr %14, align 8
  %96 = getelementptr inbounds nuw %struct._export_object_entry_t, ptr %95, i32 0, i32 4
  %97 = load i64, ptr %96, align 8
  %98 = call ptr @tvb_memdup(ptr noundef null, ptr noundef %94, i32 noundef 0, i64 noundef %97)
  %99 = load ptr, ptr %14, align 8
  %100 = getelementptr inbounds nuw %struct._export_object_entry_t, ptr %99, i32 0, i32 5
  store ptr %98, ptr %100, align 8
  %101 = load ptr, ptr %12, align 8
  %102 = getelementptr inbounds nuw %struct._export_object_list_t, ptr %101, i32 0, i32 0
  %103 = load ptr, ptr %102, align 8
  %104 = load ptr, ptr %12, align 8
  %105 = getelementptr inbounds nuw %struct._export_object_list_t, ptr %104, i32 0, i32 2
  %106 = load ptr, ptr %105, align 8
  %107 = load ptr, ptr %14, align 8
  call void %103(ptr noundef %106, ptr noundef %107)
  store i32 1, ptr %6, align 4
  store i32 1, ptr %19, align 4
  br label %109

108:                                              ; preds = %5
  store i32 0, ptr %6, align 4
  store i32 1, ptr %19, align 4
  br label %109

109:                                              ; preds = %108, %81
  call void @llvm.lifetime.end.p0(i64 8, ptr %14) #19
  call void @llvm.lifetime.end.p0(i64 8, ptr %13) #19
  call void @llvm.lifetime.end.p0(i64 8, ptr %12) #19
  %110 = load i32, ptr %6, align 4
  ret i32 %110
}