; Function Attrs: null_pointer_is_valid sspstrong uwtable
define internal range(i32 0, 2) i32 @http_eo_packet(ptr noundef readonly captures(none) %0, ptr noundef readonly captures(none) %1, ptr readnone captures(none) %2, ptr noundef readonly captures(address_is_null) %3, i32 %4) #0 {
  %.not = icmp eq ptr %3, null
  br i1 %.not, label %35, label %6

6:                                                ; preds = %5
  %7 = tail call noalias dereferenceable_or_null(48) ptr @g_malloc(i64 noundef 48) #24
  %8 = getelementptr inbounds nuw i8, ptr %1, i64 20
  %9 = load i32, ptr %8, align 4
  store i32 %9, ptr %7, align 8
  %10 = load ptr, ptr %3, align 8
  %11 = tail call noalias ptr @g_strdup(ptr noundef %10)
  %12 = getelementptr inbounds nuw i8, ptr %7, i64 8
  store ptr %11, ptr %12, align 8
  %13 = getelementptr inbounds nuw i8, ptr %3, i64 16
  %14 = load ptr, ptr %13, align 8
  %15 = tail call noalias ptr @g_strdup(ptr noundef %14)
  %16 = getelementptr inbounds nuw i8, ptr %7, i64 16
  store ptr %15, ptr %16, align 8
  %17 = getelementptr inbounds nuw i8, ptr %3, i64 8
  %18 = load ptr, ptr %17, align 8
  %.not35 = icmp eq ptr %18, null
  br i1 %.not35, label %21, label %19

19:                                               ; preds = %6
  %20 = tail call noalias ptr @g_path_get_basename(ptr noundef nonnull %18)
  br label %21

21:                                               ; preds = %6, %19
  %22 = phi ptr [ %20, %19 ], [ null, %6 ]
  %23 = getelementptr inbounds nuw i8, ptr %7, i64 24
  store ptr %22, ptr %23, align 8
  %24 = getelementptr inbounds nuw i8, ptr %3, i64 24
  %25 = load ptr, ptr %24, align 8
  %26 = tail call i32 @tvb_captured_length(ptr noundef %25)
  %27 = zext i32 %26 to i64
  %28 = getelementptr inbounds nuw i8, ptr %7, i64 32
  store i64 %27, ptr %28, align 8
  %29 = load ptr, ptr %24, align 8
  %30 = tail call ptr @tvb_memdup(ptr noundef null, ptr noundef %29, i32 noundef 0, i64 noundef %27)
  %31 = getelementptr inbounds nuw i8, ptr %7, i64 40
  store ptr %30, ptr %31, align 8
  %32 = load ptr, ptr %0, align 8
  %33 = getelementptr inbounds nuw i8, ptr %0, i64 16
  %34 = load ptr, ptr %33, align 8
  tail call void %32(ptr noundef %34, ptr noundef %7)
  br label %35

35:                                               ; preds = %5, %21
  %.0 = phi i32 [ 1, %21 ], [ 0, %5 ]
  ret i32 %.0
}